; Function Attrs: mustprogress uwtable
define hidden void @_ZN3smt10theory_lra13push_scope_ehEv(ptr noundef nonnull align 8 dereferenceable(72) %0) unnamed_addr #4 align 2 {
  tail call void @_ZN3smt6theory13push_scope_ehEv(ptr noundef nonnull align 8 dereferenceable(53) %0)
  %2 = getelementptr inbounds nuw i8, ptr %0, i64 64
  %3 = load ptr, ptr %2, align 8, !tbaa !506
  %4 = getelementptr inbounds nuw i8, ptr %3, i64 384
  %5 = load ptr, ptr %4, align 8, !tbaa !767
  %6 = icmp eq ptr %5, null
  br i1 %6, label %13, label %7

7:                                                ; preds = %1
  %8 = getelementptr inbounds i8, ptr %5, i64 -4
  %9 = load i32, ptr %8, align 4, !tbaa !652
  %10 = getelementptr inbounds i8, ptr %5, i64 -8
  %11 = load i32, ptr %10, align 4, !tbaa !652
  %12 = icmp eq i32 %9, %11
  br i1 %12, label %13, label %_ZN6vectorIN3smt10theory_lra3imp5scopeELb0EjE4backEv.exit.i

13:                                               ; preds = %7, %1
  tail call void @_ZN6vectorIN3smt10theory_lra3imp5scopeELb0EjE13expand_vectorEv(ptr noundef nonnull align 8 dereferenceable(8) %4)
  %.pre.i.i = load ptr, ptr %4, align 8, !tbaa !767
  %.phi.trans.insert.i.i = getelementptr inbounds i8, ptr %.pre.i.i, i64 -4
  %.pre2.i.i = load i32, ptr %.phi.trans.insert.i.i, align 4, !tbaa !652
  br label %_ZN6vectorIN3smt10theory_lra3imp5scopeELb0EjE4backEv.exit.i

_ZN6vectorIN3smt10theory_lra3imp5scopeELb0EjE4backEv.exit.i: ; preds = %13, %7
  %14 = phi i32 [ %.pre2.i.i, %13 ], [ %9, %7 ]
  %15 = phi ptr [ %.pre.i.i, %13 ], [ %5, %7 ]
  %16 = zext i32 %14 to i64
  %17 = getelementptr inbounds nuw %"struct.smt::theory_lra::imp::scope", ptr %15, i64 %16
  tail call void @llvm.memset.p0.i64(ptr noundef nonnull align 4 dereferenceable(12) %17, i8 0, i64 12, i1 false)
  %18 = load ptr, ptr %4, align 8, !tbaa !767
  %19 = getelementptr inbounds i8, ptr %18, i64 -4
  %20 = load i32, ptr %19, align 4, !tbaa !652
  %21 = add i32 %20, 1
  store i32 %21, ptr %19, align 4, !tbaa !652
  %22 = zext i32 %20 to i64
  %23 = getelementptr inbounds nuw %"struct.smt::theory_lra::imp::scope", ptr %18, i64 %22
  %24 = getelementptr inbounds nuw i8, ptr %3, i64 256
  %25 = load ptr, ptr %24, align 8, !tbaa !662
  %26 = icmp eq ptr %25, null
  br i1 %26, label %_ZNK6vectorIjLb0EjE4sizeEv.exit.i, label %27

27:                                               ; preds = %_ZN6vectorIN3smt10theory_lra3imp5scopeELb0EjE4backEv.exit.i
  %28 = getelementptr inbounds i8, ptr %25, i64 -4
  %29 = load i32, ptr %28, align 4, !tbaa !652
  br label %_ZNK6vectorIjLb0EjE4sizeEv.exit.i

_ZNK6vectorIjLb0EjE4sizeEv.exit.i:                ; preds = %27, %_ZN6vectorIN3smt10theory_lra3imp5scopeELb0EjE4backEv.exit.i
  %.0.i.i = phi i32 [ %29, %27 ], [ 0, %_ZN6vectorIN3smt10theory_lra3imp5scopeELb0EjE4backEv.exit.i ]
  store i32 %.0.i.i, ptr %23, align 4, !tbaa !768
  %30 = getelementptr inbounds nuw i8, ptr %3, i64 264
  %31 = load i32, ptr %30, align 8, !tbaa !770
  %32 = getelementptr inbounds nuw i8, ptr %23, i64 4
  store i32 %31, ptr %32, align 4, !tbaa !771
  %33 = getelementptr inbounds nuw i8, ptr %3, i64 176
  %34 = load ptr, ptr %33, align 8, !tbaa !758
  %35 = icmp eq ptr %34, null
  br i1 %35, label %_ZNK6vectorIN3smt10theory_lra3imp12delayed_atomELb0EjE4sizeEv.exit.i, label %36

36:                                               ; preds = %_ZNK6vectorIjLb0EjE4sizeEv.exit.i
  %37 = getelementptr inbounds i8, ptr %34, i64 -4
  %38 = load i32, ptr %37, align 4, !tbaa !652
  br label %_ZNK6vectorIN3smt10theory_lra3imp12delayed_atomELb0EjE4sizeEv.exit.i

_ZNK6vectorIN3smt10theory_lra3imp12delayed_atomELb0EjE4sizeEv.exit.i: ; preds = %36, %_ZNK6vectorIjLb0EjE4sizeEv.exit.i
  %.0.i4.i = phi i32 [ %38, %36 ], [ 0, %_ZNK6vectorIjLb0EjE4sizeEv.exit.i ]
  %39 = getelementptr inbounds nuw i8, ptr %23, i64 8
  store i32 %.0.i4.i, ptr %39, align 4, !tbaa !772
  %40 = getelementptr inbounds nuw i8, ptr %3, i64 464
  %41 = load ptr, ptr %40, align 8, !tbaa !557
  tail call void @_ZN2lp10lar_solver4pushEv(ptr noundef nonnull align 8 dereferenceable(2128) %41)
  %42 = getelementptr inbounds nuw i8, ptr %3, i64 328
  %43 = load ptr, ptr %42, align 8, !tbaa !773
  %.not.i = icmp eq ptr %43, null
  br i1 %.not.i, label %_ZN3smt10theory_lra3imp13push_scope_ehEv.exit, label %44

44:                                               ; preds = %_ZNK6vectorIN3smt10theory_lra3imp12delayed_atomELb0EjE4sizeEv.exit.i
  tail call void @_ZN3nla6solver4pushEv(ptr noundef nonnull align 8 dereferenceable(8) %43)
  br label %_ZN3smt10theory_lra3imp13push_scope_ehEv.exit

_ZN3smt10theory_lra3imp13push_scope_ehEv.exit:    ; preds = %_ZNK6vectorIN3smt10theory_lra3imp12delayed_atomELb0EjE4sizeEv.exit.i, %44
  ret void
}